; Function Attrs: nounwind uwtable
define ptr @l_Lean_Server_FileWorker_collectInfoBasedSemanticTokens___lambda__2(ptr noundef %0, ptr readnone captures(none) %1) local_unnamed_addr #0 {
  %3 = ptrtoint ptr %0 to i64
  %4 = and i64 %3, 1
  %.not = icmp eq i64 %4, 0
  br i1 %.not, label %5, label %lean_inc.exit

5:                                                ; preds = %2
  %.val.i = load i32, ptr %0, align 4, !tbaa !8
  %6 = icmp sgt i32 %.val.i, 0
  br i1 %6, label %7, label %9, !prof !14

7:                                                ; preds = %5
  %8 = add nuw i32 %.val.i, 1
  store i32 %8, ptr %0, align 4, !tbaa !8
  br label %lean_inc.exit

9:                                                ; preds = %5
  %.not.i18 = icmp eq i32 %.val.i, 0
  br i1 %.not.i18, label %lean_inc.exit, label %10

10:                                               ; preds = %9
  tail call void @lean_inc_ref_cold(ptr noundef nonnull %0) #7
  br label %lean_inc.exit

lean_inc.exit:                                    ; preds = %10, %9, %7, %2
  %11 = tail call ptr @l_Lean_Syntax_getKind(ptr noundef %0) #7
  %12 = load ptr, ptr @l_Lean_Parser_Term_identProjKind, align 8, !tbaa !11
  %13 = tail call zeroext i8 @lean_name_eq(ptr noundef %11, ptr noundef %12) #7
  %14 = ptrtoint ptr %11 to i64
  %15 = and i64 %14, 1
  %.not20 = icmp eq i64 %15, 0
  br i1 %.not20, label %16, label %lean_dec.exit15

16:                                               ; preds = %lean_inc.exit
  %17 = load i32, ptr %11, align 4, !tbaa !8
  %18 = icmp sgt i32 %17, 1
  br i1 %18, label %19, label %21, !prof !14

19:                                               ; preds = %16
  %20 = add nsw i32 %17, -1
  store i32 %20, ptr %11, align 4, !tbaa !8
  br label %lean_dec.exit15

21:                                               ; preds = %16
  %.not.i = icmp eq i32 %17, 0
  br i1 %.not.i, label %lean_dec.exit15, label %22

22:                                               ; preds = %21
  tail call void @lean_dec_ref_cold(ptr noundef nonnull %11) #7
  br label %lean_dec.exit15

lean_dec.exit15:                                  ; preds = %22, %21, %19, %lean_inc.exit
  %23 = icmp eq i8 %13, 0
  br i1 %23, label %24, label %33

24:                                               ; preds = %lean_dec.exit15
  br i1 %.not, label %25, label %lean_dec.exit

25:                                               ; preds = %24
  %26 = load i32, ptr %0, align 4, !tbaa !8
  %27 = icmp sgt i32 %26, 1
  br i1 %27, label %28, label %30, !prof !14

28:                                               ; preds = %25
  %29 = add nsw i32 %26, -1
  store i32 %29, ptr %0, align 4, !tbaa !8
  br label %lean_dec.exit

30:                                               ; preds = %25
  %.not.i16 = icmp eq i32 %26, 0
  br i1 %.not.i16, label %lean_dec.exit, label %31

31:                                               ; preds = %30
  tail call void @lean_dec_ref_cold(ptr noundef nonnull %0) #7
  br label %lean_dec.exit

lean_dec.exit:                                    ; preds = %31, %30, %28, %24
  %32 = load ptr, ptr @l_Lean_Server_FileWorker_collectInfoBasedSemanticTokens___lambda__2___closed__2, align 8, !tbaa !11
  br label %45

33:                                               ; preds = %lean_dec.exit15
  tail call void @lean_inc_heartbeat() #7
  %34 = tail call noalias ptr @mi_malloc_small(i64 noundef 24) #7
  %35 = icmp eq ptr %34, null
  br i1 %35, label %36, label %lean_alloc_ctor.exit

36:                                               ; preds = %33
  tail call void @lean_internal_panic_out_of_memory() #8
  unreachable

lean_alloc_ctor.exit:                             ; preds = %33
  %37 = getelementptr inbounds nuw i8, ptr %34, i64 4
  %38 = getelementptr inbounds nuw i8, ptr %34, i64 16
  store i64 2, ptr %38, align 8, !tbaa !4
  store i32 1, ptr %34, align 4, !tbaa !8
  store i32 65560, ptr %37, align 4
  %39 = getelementptr inbounds nuw i8, ptr %34, i64 8
  store ptr %0, ptr %39, align 8, !tbaa !11
  tail call void @lean_inc_heartbeat() #7
  %40 = tail call noalias ptr @mi_malloc_small(i64 noundef 16) #7
  %41 = icmp eq ptr %40, null
  br i1 %41, label %42, label %lean_alloc_ctor.exit19

42:                                               ; preds = %lean_alloc_ctor.exit
  tail call void @lean_internal_panic_out_of_memory() #8
  unreachable

lean_alloc_ctor.exit19:                           ; preds = %lean_alloc_ctor.exit
  %43 = getelementptr inbounds nuw i8, ptr %40, i64 4
  store i32 1, ptr %40, align 4, !tbaa !8
  store i32 16842768, ptr %43, align 4
  %44 = getelementptr inbounds nuw i8, ptr %40, i64 8
  store ptr %34, ptr %44, align 8, !tbaa !11
  br label %45

45:                                               ; preds = %lean_alloc_ctor.exit19, %lean_dec.exit
  %.0 = phi ptr [ %32, %lean_dec.exit ], [ %40, %lean_alloc_ctor.exit19 ]
  ret ptr %.0
}